target datalayout = "e-m:e-p270:32:32-p271:32:32-p272:64:64-i64:64-i128:128-f80:128-n8:16:32:64-S128"
target triple = "x86_64-pc-linux-gnu"

; Function Attrs: mustprogress nounwind uwtable
define void @_ZN6LibRaw13pseudoinverseEPA3_dS1_i(ptr noundef nonnull align 8 dereferenceable(767680) %0, ptr noundef %1, ptr noundef %2, i32 noundef %3) #1 align 2 {
  %5 = alloca ptr, align 8
  %6 = alloca ptr, align 8
  %7 = alloca ptr, align 8
  %8 = alloca i32, align 4
  %9 = alloca [3 x [6 x double]], align 16
  %10 = alloca double, align 8
  %11 = alloca i32, align 4
  %12 = alloca i32, align 4
  %13 = alloca i32, align 4
  store ptr %0, ptr %5, align 8, !tbaa !6
  store ptr %1, ptr %6, align 8, !tbaa !142
  store ptr %2, ptr %7, align 8, !tbaa !142
  store i32 %3, ptr %8, align 4, !tbaa !11
  call void @llvm.lifetime.start.p0(i64 144, ptr %9) #7
  call void @llvm.lifetime.start.p0(i64 8, ptr %10) #7
  call void @llvm.lifetime.start.p0(i64 4, ptr %11) #7
  call void @llvm.lifetime.start.p0(i64 4, ptr %12) #7
  call void @llvm.lifetime.start.p0(i64 4, ptr %13) #7
  store i32 0, ptr %11, align 4, !tbaa !11
  br label %14

14:                                               ; preds = %84, %4
  %15 = load i32, ptr %11, align 4, !tbaa !11
  %16 = icmp slt i32 %15, 3
  br i1 %16, label %17, label %87

17:                                               ; preds = %14
  store i32 0, ptr %12, align 4, !tbaa !11
  br label %18

18:                                               ; preds = %33, %17
  %19 = load i32, ptr %12, align 4, !tbaa !11
  %20 = icmp slt i32 %19, 6
  br i1 %20, label %21, label %36

21:                                               ; preds = %18
  %22 = load i32, ptr %12, align 4, !tbaa !11
  %23 = load i32, ptr %11, align 4, !tbaa !11
  %24 = add nsw i32 %23, 3
  %25 = icmp eq i32 %22, %24
  %26 = uitofp i1 %25 to double
  %27 = load i32, ptr %11, align 4, !tbaa !11
  %28 = sext i32 %27 to i64
  %29 = getelementptr inbounds [3 x [6 x double]], ptr %9, i64 0, i64 %28
  %30 = load i32, ptr %12, align 4, !tbaa !11
  %31 = sext i32 %30 to i64
  %32 = getelementptr inbounds [6 x double], ptr %29, i64 0, i64 %31
  store double %26, ptr %32, align 8, !tbaa !144
  br label %33

33:                                               ; preds = %21
  %34 = load i32, ptr %12, align 4, !tbaa !11
  %35 = add nsw i32 %34, 1
  store i32 %35, ptr %12, align 4, !tbaa !11
  br label %18, !llvm.loop !169

36:                                               ; preds = %18
  store i32 0, ptr %12, align 4, !tbaa !11
  br label %37

37:                                               ; preds = %80, %36
  %38 = load i32, ptr %12, align 4, !tbaa !11
  %39 = icmp slt i32 %38, 3
  br i1 %39, label %40, label %83

40:                                               ; preds = %37
  store i32 0, ptr %13, align 4, !tbaa !11
  br label %41

41:                                               ; preds = %76, %40
  %42 = load i32, ptr %13, align 4, !tbaa !11
  %43 = load i32, ptr %8, align 4, !tbaa !11
  %44 = icmp slt i32 %42, %43
  br i1 %44, label %45, label %48

45:                                               ; preds = %41
  %46 = load i32, ptr %13, align 4, !tbaa !11
  %47 = icmp slt i32 %46, 4
  br label %48

48:                                               ; preds = %45, %41
  %49 = phi i1 [ false, %41 ], [ %47, %45 ]
  br i1 %49, label %50, label %79

50:                                               ; preds = %48
  %51 = load ptr, ptr %6, align 8, !tbaa !142
  %52 = load i32, ptr %13, align 4, !tbaa !11
  %53 = sext i32 %52 to i64
  %54 = getelementptr inbounds [3 x double], ptr %51, i64 %53
  %55 = load i32, ptr %11, align 4, !tbaa !11
  %56 = sext i32 %55 to i64
  %57 = getelementptr inbounds [3 x double], ptr %54, i64 0, i64 %56
  %58 = load double, ptr %57, align 8, !tbaa !144
  %59 = load ptr, ptr %6, align 8, !tbaa !142
  %60 = load i32, ptr %13, align 4, !tbaa !11
  %61 = sext i32 %60 to i64
  %62 = getelementptr inbounds [3 x double], ptr %59, i64 %61
  %63 = load i32, ptr %12, align 4, !tbaa !11
  %64 = sext i32 %63 to i64
  %65 = getelementptr inbounds [3 x double], ptr %62, i64 0, i64 %64
  %66 = load double, ptr %65, align 8, !tbaa !144
  %67 = fmul reassoc nsz arcp contract afn double %58, %66
  %68 = load i32, ptr %11, align 4, !tbaa !11
  %69 = sext i32 %68 to i64
  %70 = getelementptr inbounds [3 x [6 x double]], ptr %9, i64 0, i64 %69
  %71 = load i32, ptr %12, align 4, !tbaa !11
  %72 = sext i32 %71 to i64
  %73 = getelementptr inbounds [6 x double], ptr %70, i64 0, i64 %72
  %74 = load double, ptr %73, align 8, !tbaa !144
  %75 = fadd reassoc nsz arcp contract afn double %74, %67
  store double %75, ptr %73, align 8, !tbaa !144
  br label %76

76:                                               ; preds = %50
  %77 = load i32, ptr %13, align 4, !tbaa !11
  %78 = add nsw i32 %77, 1
  store i32 %78, ptr %13, align 4, !tbaa !11
  br label %41, !llvm.loop !170

79:                                               ; preds = %48
  br label %80

80:                                               ; preds = %79
  %81 = load i32, ptr %12, align 4, !tbaa !11
  %82 = add nsw i32 %81, 1
  store i32 %82, ptr %12, align 4, !tbaa !11
  br label %37, !llvm.loop !171

83:                                               ; preds = %37
  br label %84

84:                                               ; preds = %83
  %85 = load i32, ptr %11, align 4, !tbaa !11
  %86 = add nsw i32 %85, 1
  store i32 %86, ptr %11, align 4, !tbaa !11
  br label %14, !llvm.loop !172

87:                                               ; preds = %14
  store i32 0, ptr %11, align 4, !tbaa !11
  br label %88

88:                                               ; preds = %166, %87
  %89 = load i32, ptr %11, align 4, !tbaa !11
  %90 = icmp slt i32 %89, 3
  br i1 %90, label %91, label %169

91:                                               ; preds = %88
  %92 = load i32, ptr %11, align 4, !tbaa !11
  %93 = sext i32 %92 to i64
  %94 = getelementptr inbounds [3 x [6 x double]], ptr %9, i64 0, i64 %93
  %95 = load i32, ptr %11, align 4, !tbaa !11
  %96 = sext i32 %95 to i64
  %97 = getelementptr inbounds [6 x double], ptr %94, i64 0, i64 %96
  %98 = load double, ptr %97, align 8, !tbaa !144
  store double %98, ptr %10, align 8, !tbaa !144
  store i32 0, ptr %12, align 4, !tbaa !11
  br label %99

99:                                               ; preds = %117, %91
  %100 = load i32, ptr %12, align 4, !tbaa !11
  %101 = icmp slt i32 %100, 6
  br i1 %101, label %102, label %120

102:                                              ; preds = %99
  %103 = load double, ptr %10, align 8, !tbaa !144
  %104 = call reassoc nsz arcp contract afn double @llvm.fabs.f64(double %103)
  %105 = fcmp reassoc nsz arcp contract afn ogt double %104, 0x3EE4F8B580000000
  br i1 %105, label %106, label %116

106:                                              ; preds = %102
  %107 = load double, ptr %10, align 8, !tbaa !144
  %108 = load i32, ptr %11, align 4, !tbaa !11
  %109 = sext i32 %108 to i64
  %110 = getelementptr inbounds [3 x [6 x double]], ptr %9, i64 0, i64 %109
  %111 = load i32, ptr %12, align 4, !tbaa !11
  %112 = sext i32 %111 to i64
  %113 = getelementptr inbounds [6 x double], ptr %110, i64 0, i64 %112
  %114 = load double, ptr %113, align 8, !tbaa !144
  %115 = fdiv reassoc nsz arcp contract afn double %114, %107
  store double %115, ptr %113, align 8, !tbaa !144
  br label %116

116:                                              ; preds = %106, %102
  br label %117

117:                                              ; preds = %116
  %118 = load i32, ptr %12, align 4, !tbaa !11
  %119 = add nsw i32 %118, 1
  store i32 %119, ptr %12, align 4, !tbaa !11
  br label %99, !llvm.loop !173

120:                                              ; preds = %99
  store i32 0, ptr %13, align 4, !tbaa !11
  br label %121

121:                                              ; preds = %162, %120
  %122 = load i32, ptr %13, align 4, !tbaa !11
  %123 = icmp slt i32 %122, 3
  br i1 %123, label %124, label %165

124:                                              ; preds = %121
  %125 = load i32, ptr %13, align 4, !tbaa !11
  %126 = load i32, ptr %11, align 4, !tbaa !11
  %127 = icmp eq i32 %125, %126
  br i1 %127, label %128, label %129

128:                                              ; preds = %124
  br label %162

129:                                              ; preds = %124
  %130 = load i32, ptr %13, align 4, !tbaa !11
  %131 = sext i32 %130 to i64
  %132 = getelementptr inbounds [3 x [6 x double]], ptr %9, i64 0, i64 %131
  %133 = load i32, ptr %11, align 4, !tbaa !11
  %134 = sext i32 %133 to i64
  %135 = getelementptr inbounds [6 x double], ptr %132, i64 0, i64 %134
  %136 = load double, ptr %135, align 8, !tbaa !144
  store double %136, ptr %10, align 8, !tbaa !144
  store i32 0, ptr %12, align 4, !tbaa !11
  br label %137

137:                                              ; preds = %158, %129
  %138 = load i32, ptr %12, align 4, !tbaa !11
  %139 = icmp slt i32 %138, 6
  br i1 %139, label %140, label %161

140:                                              ; preds = %137
  %141 = load i32, ptr %11, align 4, !tbaa !11
  %142 = sext i32 %141 to i64
  %143 = getelementptr inbounds [3 x [6 x double]], ptr %9, i64 0, i64 %142
  %144 = load i32, ptr %12, align 4, !tbaa !11
  %145 = sext i32 %144 to i64
  %146 = getelementptr inbounds [6 x double], ptr %143, i64 0, i64 %145
  %147 = load double, ptr %146, align 8, !tbaa !144
  %148 = load double, ptr %10, align 8, !tbaa !144
  %149 = fmul reassoc nsz arcp contract afn double %147, %148
  %150 = load i32, ptr %13, align 4, !tbaa !11
  %151 = sext i32 %150 to i64
  %152 = getelementptr inbounds [3 x [6 x double]], ptr %9, i64 0, i64 %151
  %153 = load i32, ptr %12, align 4, !tbaa !11
  %154 = sext i32 %153 to i64
  %155 = getelementptr inbounds [6 x double], ptr %152, i64 0, i64 %154
  %156 = load double, ptr %155, align 8, !tbaa !144
  %157 = fsub reassoc nsz arcp contract afn double %156, %149
  store double %157, ptr %155, align 8, !tbaa !144
  br label %158

158:                                              ; preds = %140
  %159 = load i32, ptr %12, align 4, !tbaa !11
  %160 = add nsw i32 %159, 1
  store i32 %160, ptr %12, align 4, !tbaa !11
  br label %137, !llvm.loop !174

161:                                              ; preds = %137
  br label %162

162:                                              ; preds = %161, %128
  %163 = load i32, ptr %13, align 4, !tbaa !11
  %164 = add nsw i32 %163, 1
  store i32 %164, ptr %13, align 4, !tbaa !11
  br label %121, !llvm.loop !175

165:                                              ; preds = %121
  br label %166

166:                                              ; preds = %165
  %167 = load i32, ptr %11, align 4, !tbaa !11
  %168 = add nsw i32 %167, 1
  store i32 %168, ptr %11, align 4, !tbaa !11
  br label %88, !llvm.loop !176

169:                                              ; preds = %88
  store i32 0, ptr %11, align 4, !tbaa !11
  br label %170

170:                                              ; preds = %229, %169
  %171 = load i32, ptr %11, align 4, !tbaa !11
  %172 = load i32, ptr %8, align 4, !tbaa !11
  %173 = icmp slt i32 %171, %172
  br i1 %173, label %174, label %177

174:                                              ; preds = %170
  %175 = load i32, ptr %11, align 4, !tbaa !11
  %176 = icmp slt i32 %175, 4
  br label %177

177:                                              ; preds = %174, %170
  %178 = phi i1 [ false, %170 ], [ %176, %174 ]
  br i1 %178, label %179, label %232

179:                                              ; preds = %177
  store i32 0, ptr %12, align 4, !tbaa !11
  br label %180

180:                                              ; preds = %225, %179
  %181 = load i32, ptr %12, align 4, !tbaa !11
  %182 = icmp slt i32 %181, 3
  br i1 %182, label %183, label %228

183:                                              ; preds = %180
  store i32 0, ptr %13, align 4, !tbaa !11
  %184 = load ptr, ptr %7, align 8, !tbaa !142
  %185 = load i32, ptr %11, align 4, !tbaa !11
  %186 = sext i32 %185 to i64
  %187 = getelementptr inbounds [3 x double], ptr %184, i64 %186
  %188 = load i32, ptr %12, align 4, !tbaa !11
  %189 = sext i32 %188 to i64
  %190 = getelementptr inbounds [3 x double], ptr %187, i64 0, i64 %189
  store double 0.000000e+00, ptr %190, align 8, !tbaa !144
  br label %191

191:                                              ; preds = %221, %183
  %192 = load i32, ptr %13, align 4, !tbaa !11
  %193 = icmp slt i32 %192, 3
  br i1 %193, label %194, label %224

194:                                              ; preds = %191
  %195 = load i32, ptr %12, align 4, !tbaa !11
  %196 = sext i32 %195 to i64
  %197 = getelementptr inbounds [3 x [6 x double]], ptr %9, i64 0, i64 %196
  %198 = load i32, ptr %13, align 4, !tbaa !11
  %199 = add nsw i32 %198, 3
  %200 = sext i32 %199 to i64
  %201 = getelementptr inbounds [6 x double], ptr %197, i64 0, i64 %200
  %202 = load double, ptr %201, align 8, !tbaa !144
  %203 = load ptr, ptr %6, align 8, !tbaa !142
  %204 = load i32, ptr %11, align 4, !tbaa !11
  %205 = sext i32 %204 to i64
  %206 = getelementptr inbounds [3 x double], ptr %203, i64 %205
  %207 = load i32, ptr %13, align 4, !tbaa !11
  %208 = sext i32 %207 to i64
  %209 = getelementptr inbounds [3 x double], ptr %206, i64 0, i64 %208
  %210 = load double, ptr %209, align 8, !tbaa !144
  %211 = fmul reassoc nsz arcp contract afn double %202, %210
  %212 = load ptr, ptr %7, align 8, !tbaa !142
  %213 = load i32, ptr %11, align 4, !tbaa !11
  %214 = sext i32 %213 to i64
  %215 = getelementptr inbounds [3 x double], ptr %212, i64 %214
  %216 = load i32, ptr %12, align 4, !tbaa !11
  %217 = sext i32 %216 to i64
  %218 = getelementptr inbounds [3 x double], ptr %215, i64 0, i64 %217
  %219 = load double, ptr %218, align 8, !tbaa !144
  %220 = fadd reassoc nsz arcp contract afn double %219, %211
  store double %220, ptr %218, align 8, !tbaa !144
  br label %221

221:                                              ; preds = %194
  %222 = load i32, ptr %13, align 4, !tbaa !11
  %223 = add nsw i32 %222, 1
  store i32 %223, ptr %13, align 4, !tbaa !11
  br label %191, !llvm.loop !177

224:                                              ; preds = %191
  br label %225

225:                                              ; preds = %224
  %226 = load i32, ptr %12, align 4, !tbaa !11
  %227 = add nsw i32 %226, 1
  store i32 %227, ptr %12, align 4, !tbaa !11
  br label %180, !llvm.loop !178

228:                                              ; preds = %180
  br label %229

229:                                              ; preds = %228
  %230 = load i32, ptr %11, align 4, !tbaa !11
  %231 = add nsw i32 %230, 1
  store i32 %231, ptr %11, align 4, !tbaa !11
  br label %170, !llvm.loop !179

232:                                              ; preds = %177
  call void @llvm.lifetime.end.p0(i64 4, ptr %13) #7
  call void @llvm.lifetime.end.p0(i64 4, ptr %12) #7
  call void @llvm.lifetime.end.p0(i64 4, ptr %11) #7
  call void @llvm.lifetime.end.p0(i64 8, ptr %10) #7
  call void @llvm.lifetime.end.p0(i64 144, ptr %9) #7
  ret void
}