; Function Attrs: mustprogress nofree norecurse nosync nounwind memory(argmem: readwrite) uwtable
define void @_ZN6LibRaw13pseudoinverseEPA3_dS1_i(ptr nonnull readnone align 8 captures(none) %0, ptr noundef readonly captures(none) %1, ptr noundef writeonly captures(none) %2, i32 noundef %3) local_unnamed_addr #8 align 2 {
  %5 = alloca [3 x [6 x double]], align 16
  call void @llvm.lifetime.start.p0(i64 144, ptr nonnull %5) #17
  %invariant.smin = tail call i32 @llvm.smin.i32(i32 %3, i32 4)
  %6 = icmp sgt i32 %3, 0
  br i1 %6, label %.preheader74.us.preheader, label %.preheader74

.preheader74.us.preheader:                        ; preds = %4
  %wide.trip.count = zext nneg i32 %invariant.smin to i64
  br label %.preheader74.us

.preheader74.us:                                  ; preds = %.preheader74.us.preheader, %.split.us.us
  %indvars.iv108 = phi i64 [ 0, %.preheader74.us.preheader ], [ %indvars.iv.next109, %.split.us.us ]
  %7 = add nuw nsw i64 %indvars.iv108, 3
  br label %8

8:                                                ; preds = %8, %.preheader74.us
  %indvars.iv96 = phi i64 [ %indvars.iv.next97, %8 ], [ 0, %.preheader74.us ]
  %9 = icmp eq i64 %indvars.iv96, %7
  %10 = uitofp i1 %9 to double
  %11 = getelementptr inbounds nuw [3 x [6 x double]], ptr %5, i64 0, i64 %indvars.iv108, i64 %indvars.iv96
  store double %10, ptr %11, align 8, !tbaa !116
  %indvars.iv.next97 = add nuw nsw i64 %indvars.iv96, 1
  %exitcond99.not = icmp eq i64 %indvars.iv.next97, 6
  br i1 %exitcond99.not, label %.preheader72.us.us, label %8, !llvm.loop !143

.preheader72.us.us:                               ; preds = %8, %._crit_edge.us.us
  %indvars.iv104 = phi i64 [ %indvars.iv.next105, %._crit_edge.us.us ], [ 0, %8 ]
  %12 = getelementptr inbounds nuw [3 x [6 x double]], ptr %5, i64 0, i64 %indvars.iv108, i64 %indvars.iv104
  %.promoted.us.us = load double, ptr %12, align 8, !tbaa !116
  br label %13

13:                                               ; preds = %13, %.preheader72.us.us
  %indvars.iv100 = phi i64 [ %indvars.iv.next101, %13 ], [ 0, %.preheader72.us.us ]
  %14 = phi double [ %20, %13 ], [ %.promoted.us.us, %.preheader72.us.us ]
  %15 = getelementptr inbounds nuw [3 x double], ptr %1, i64 %indvars.iv100, i64 %indvars.iv108
  %16 = load double, ptr %15, align 8, !tbaa !116
  %17 = getelementptr inbounds nuw [3 x double], ptr %1, i64 %indvars.iv100, i64 %indvars.iv104
  %18 = load double, ptr %17, align 8, !tbaa !116
  %19 = fmul reassoc nsz arcp contract afn double %18, %16
  %20 = fadd reassoc nsz arcp contract afn double %14, %19
  %indvars.iv.next101 = add nuw nsw i64 %indvars.iv100, 1
  %exitcond103.not = icmp eq i64 %indvars.iv.next101, %wide.trip.count
  br i1 %exitcond103.not, label %._crit_edge.us.us, label %13, !llvm.loop !144

._crit_edge.us.us:                                ; preds = %13
  store double %20, ptr %12, align 8, !tbaa !116
  %indvars.iv.next105 = add nuw nsw i64 %indvars.iv104, 1
  %exitcond107.not = icmp eq i64 %indvars.iv.next105, 3
  br i1 %exitcond107.not, label %.split.us.us, label %.preheader72.us.us, !llvm.loop !145

.split.us.us:                                     ; preds = %._crit_edge.us.us
  %indvars.iv.next109 = add nuw nsw i64 %indvars.iv108, 1
  %exitcond111.not = icmp eq i64 %indvars.iv.next109, 3
  br i1 %exitcond111.not, label %.preheader71.preheader, label %.preheader74.us, !llvm.loop !146

.preheader71.preheader:                           ; preds = %.preheader72.preheader, %.split.us.us
  br label %.preheader71

.preheader74:                                     ; preds = %4, %.preheader72.preheader
  %indvars.iv92 = phi i64 [ %indvars.iv.next93, %.preheader72.preheader ], [ 0, %4 ]
  %21 = add nuw nsw i64 %indvars.iv92, 3
  br label %22

22:                                               ; preds = %.preheader74, %22
  %indvars.iv = phi i64 [ 0, %.preheader74 ], [ %indvars.iv.next, %22 ]
  %23 = icmp eq i64 %indvars.iv, %21
  %24 = uitofp i1 %23 to double
  %25 = getelementptr inbounds nuw [3 x [6 x double]], ptr %5, i64 0, i64 %indvars.iv92, i64 %indvars.iv
  store double %24, ptr %25, align 8, !tbaa !116
  %indvars.iv.next = add nuw nsw i64 %indvars.iv, 1
  %exitcond.not = icmp eq i64 %indvars.iv.next, 6
  br i1 %exitcond.not, label %.preheader72.preheader, label %22, !llvm.loop !143

.preheader72.preheader:                           ; preds = %22
  %indvars.iv.next93 = add nuw nsw i64 %indvars.iv92, 1
  %exitcond95.not = icmp eq i64 %indvars.iv.next93, 3
  br i1 %exitcond95.not, label %.preheader71.preheader, label %.preheader74, !llvm.loop !146

.preheader69:                                     ; preds = %45
  br i1 %6, label %.preheader.preheader, label %._crit_edge

.preheader.preheader:                             ; preds = %.preheader69
  %wide.trip.count139 = zext nneg i32 %invariant.smin to i64
  br label %.preheader

.preheader71:                                     ; preds = %.preheader71.preheader, %45
  %indvars.iv124 = phi i64 [ %indvars.iv.next125, %45 ], [ 0, %.preheader71.preheader ]
  %26 = getelementptr inbounds nuw [3 x [6 x double]], ptr %5, i64 0, i64 %indvars.iv124, i64 %indvars.iv124
  %27 = load double, ptr %26, align 8, !tbaa !116
  %28 = tail call reassoc nsz arcp contract afn double @llvm.fabs.f64(double %27)
  %29 = fcmp reassoc nsz arcp contract afn ogt double %28, 0x3EE4F8B580000000
  br i1 %29, label %.split81.us.preheader, label %.preheader70.preheader

.split81.us.preheader:                            ; preds = %.preheader71
  %30 = fdiv reassoc nsz arcp contract afn double 1.000000e+00, %27
  br label %.split81.us

.split81.us:                                      ; preds = %.split81.us.preheader, %.split81.us
  %indvars.iv112 = phi i64 [ %indvars.iv.next113, %.split81.us ], [ 0, %.split81.us.preheader ]
  %31 = getelementptr inbounds nuw [3 x [6 x double]], ptr %5, i64 0, i64 %indvars.iv124, i64 %indvars.iv112
  %32 = load double, ptr %31, align 8, !tbaa !116
  %33 = fmul reassoc nsz arcp contract afn double %32, %30
  store double %33, ptr %31, align 8, !tbaa !116
  %indvars.iv.next113 = add nuw nsw i64 %indvars.iv112, 1
  %exitcond115.not = icmp eq i64 %indvars.iv.next113, 6
  br i1 %exitcond115.not, label %.preheader70.preheader, label %.split81.us, !llvm.loop !147

.preheader70.preheader:                           ; preds = %.split81.us, %.preheader71
  br label %.preheader70

.preheader70:                                     ; preds = %.preheader70.preheader, %.loopexit
  %indvars.iv120 = phi i64 [ %indvars.iv.next121, %.loopexit ], [ 0, %.preheader70.preheader ]
  %34 = icmp eq i64 %indvars.iv120, %indvars.iv124
  br i1 %34, label %.loopexit, label %35

35:                                               ; preds = %.preheader70
  %36 = getelementptr inbounds nuw [3 x [6 x double]], ptr %5, i64 0, i64 %indvars.iv120, i64 %indvars.iv124
  %37 = load double, ptr %36, align 8, !tbaa !116
  br label %38

38:                                               ; preds = %35, %38
  %indvars.iv116 = phi i64 [ 0, %35 ], [ %indvars.iv.next117, %38 ]
  %39 = getelementptr inbounds nuw [3 x [6 x double]], ptr %5, i64 0, i64 %indvars.iv124, i64 %indvars.iv116
  %40 = load double, ptr %39, align 8, !tbaa !116
  %41 = fmul reassoc nsz arcp contract afn double %40, %37
  %42 = getelementptr inbounds nuw [3 x [6 x double]], ptr %5, i64 0, i64 %indvars.iv120, i64 %indvars.iv116
  %43 = load double, ptr %42, align 8, !tbaa !116
  %44 = fsub reassoc nsz arcp contract afn double %43, %41
  store double %44, ptr %42, align 8, !tbaa !116
  %indvars.iv.next117 = add nuw nsw i64 %indvars.iv116, 1
  %exitcond119.not = icmp eq i64 %indvars.iv.next117, 6
  br i1 %exitcond119.not, label %.loopexit, label %38, !llvm.loop !148

.loopexit:                                        ; preds = %38, %.preheader70
  %indvars.iv.next121 = add nuw nsw i64 %indvars.iv120, 1
  %exitcond123.not = icmp eq i64 %indvars.iv.next121, 3
  br i1 %exitcond123.not, label %45, label %.preheader70, !llvm.loop !149

45:                                               ; preds = %.loopexit
  %indvars.iv.next125 = add nuw nsw i64 %indvars.iv124, 1
  %exitcond127.not = icmp eq i64 %indvars.iv.next125, 3
  br i1 %exitcond127.not, label %.preheader69, label %.preheader71, !llvm.loop !150

.preheader:                                       ; preds = %.preheader.preheader, %58
  %indvars.iv136 = phi i64 [ 0, %.preheader.preheader ], [ %indvars.iv.next137, %58 ]
  br label %46

46:                                               ; preds = %.preheader, %57
  %indvars.iv132 = phi i64 [ 0, %.preheader ], [ %indvars.iv.next133, %57 ]
  %47 = getelementptr inbounds nuw [3 x double], ptr %2, i64 %indvars.iv136, i64 %indvars.iv132
  store double 0.000000e+00, ptr %47, align 8, !tbaa !116
  br label %48

48:                                               ; preds = %46, %48
  %indvars.iv128 = phi i64 [ 0, %46 ], [ %indvars.iv.next129, %48 ]
  %49 = phi double [ 0.000000e+00, %46 ], [ %56, %48 ]
  %50 = add nuw nsw i64 %indvars.iv128, 3
  %51 = getelementptr inbounds nuw [3 x [6 x double]], ptr %5, i64 0, i64 %indvars.iv132, i64 %50
  %52 = load double, ptr %51, align 8, !tbaa !116
  %53 = getelementptr inbounds nuw [3 x double], ptr %1, i64 %indvars.iv136, i64 %indvars.iv128
  %54 = load double, ptr %53, align 8, !tbaa !116
  %55 = fmul reassoc nsz arcp contract afn double %54, %52
  %56 = fadd reassoc nsz arcp contract afn double %49, %55
  store double %56, ptr %47, align 8, !tbaa !116
  %indvars.iv.next129 = add nuw nsw i64 %indvars.iv128, 1
  %exitcond131.not = icmp eq i64 %indvars.iv.next129, 3
  br i1 %exitcond131.not, label %57, label %48, !llvm.loop !151

57:                                               ; preds = %48
  %indvars.iv.next133 = add nuw nsw i64 %indvars.iv132, 1
  %exitcond135.not = icmp eq i64 %indvars.iv.next133, 3
  br i1 %exitcond135.not, label %58, label %46, !llvm.loop !152

58:                                               ; preds = %57
  %indvars.iv.next137 = add nuw nsw i64 %indvars.iv136, 1
  %exitcond140.not = icmp eq i64 %indvars.iv.next137, %wide.trip.count139
  br i1 %exitcond140.not, label %._crit_edge, label %.preheader, !llvm.loop !153

._crit_edge:                                      ; preds = %58, %.preheader69
  call void @llvm.lifetime.end.p0(i64 144, ptr nonnull %5) #17
  ret void
}